; Function Attrs: mustprogress nofree nounwind willreturn memory(read) uwtable
define internal fastcc range(i32 -1, 2) i32 @parse_push_color_slot(ptr noundef readonly captures(none) %0) unnamed_addr #8 {
  %2 = tail call i32 @strcasecmp(ptr noundef %0, ptr noundef nonnull @.str.81) #16
  %.not = icmp eq i32 %2, 0
  br i1 %.not, label %5, label %3

3:                                                ; preds = %1
  %4 = tail call i32 @strcasecmp(ptr noundef %0, ptr noundef nonnull @.str.82) #16
  %.not2 = icmp eq i32 %4, 0
  %. = select i1 %.not2, i32 1, i32 -1
  br label %5

5:                                                ; preds = %3, %1
  %.0 = phi i32 [ 0, %1 ], [ %., %3 ]
  ret i32 %.0
}